target datalayout = "e-m:e-p270:32:32-p271:32:32-p272:64:64-i64:64-i128:128-f80:128-n8:16:32:64-S128"
target triple = "x86_64-pc-linux-gnu"

%struct.Vec_Que_t_ = type { i32, i32, ptr, ptr, ptr }

; Function Attrs: inlinehint nounwind uwtable
define internal float @Vec_QuePrio(ptr noundef %0, i32 noundef %1) #2 {
  %3 = alloca ptr, align 8
  %4 = alloca i32, align 4
  store ptr %0, ptr %3, align 8, !tbaa !95
  store i32 %1, ptr %4, align 4, !tbaa !8
  %5 = load ptr, ptr %3, align 8, !tbaa !95
  %6 = getelementptr inbounds nuw %struct.Vec_Que_t_, ptr %5, i32 0, i32 4
  %7 = load ptr, ptr %6, align 8, !tbaa !143
  %8 = load ptr, ptr %7, align 8, !tbaa !179
  %9 = icmp ne ptr %8, null
  br i1 %9, label %10, label %19

10:                                               ; preds = %2
  %11 = load ptr, ptr %3, align 8, !tbaa !95
  %12 = getelementptr inbounds nuw %struct.Vec_Que_t_, ptr %11, i32 0, i32 4
  %13 = load ptr, ptr %12, align 8, !tbaa !143
  %14 = load ptr, ptr %13, align 8, !tbaa !179
  %15 = load i32, ptr %4, align 4, !tbaa !8
  %16 = sext i32 %15 to i64
  %17 = getelementptr inbounds float, ptr %14, i64 %16
  %18 = load float, ptr %17, align 4, !tbaa !76
  br label %22

19:                                               ; preds = %2
  %20 = load i32, ptr %4, align 4, !tbaa !8
  %21 = sitofp i32 %20 to float
  br label %22

22:                                               ; preds = %19, %10
  %23 = phi float [ %18, %10 ], [ %21, %19 ]
  ret float %23
}

; Function Attrs: inlinehint nounwind uwtable
define internal i32 @Vec_QueMoveUp(ptr noundef %0, i32 noundef %1) #2 {
  %3 = alloca ptr, align 8
  %4 = alloca i32, align 4
  %5 = alloca float, align 4
  %6 = alloca i32, align 4
  %7 = alloca i32, align 4
  %8 = alloca i32, align 4
  store ptr %0, ptr %3, align 8, !tbaa !95
  store i32 %1, ptr %4, align 4, !tbaa !8
  call void @llvm.lifetime.start.p0(i64 4, ptr %5) #13
  %9 = load ptr, ptr %3, align 8, !tbaa !95
  %10 = load i32, ptr %4, align 4, !tbaa !8
  %11 = call float @Vec_QuePrio(ptr noundef %9, i32 noundef %10)
  store float %11, ptr %5, align 4, !tbaa !76
  call void @llvm.lifetime.start.p0(i64 4, ptr %6) #13
  %12 = load ptr, ptr %3, align 8, !tbaa !95
  %13 = getelementptr inbounds nuw %struct.Vec_Que_t_, ptr %12, i32 0, i32 3
  %14 = load ptr, ptr %13, align 8, !tbaa !141
  %15 = load i32, ptr %4, align 4, !tbaa !8
  %16 = sext i32 %15 to i64
  %17 = getelementptr inbounds i32, ptr %14, i64 %16
  %18 = load i32, ptr %17, align 4, !tbaa !8
  store i32 %18, ptr %6, align 4, !tbaa !8
  call void @llvm.lifetime.start.p0(i64 4, ptr %7) #13
  %19 = load i32, ptr %6, align 4, !tbaa !8
  %20 = ashr i32 %19, 1
  store i32 %20, ptr %7, align 4, !tbaa !8
  call void @llvm.lifetime.start.p0(i64 4, ptr %8) #13
  store i32 0, ptr %8, align 4, !tbaa !8
  br label %21

21:                                               ; preds = %38, %2
  %22 = load i32, ptr %6, align 4, !tbaa !8
  %23 = icmp sgt i32 %22, 1
  br i1 %23, label %24, label %36

24:                                               ; preds = %21
  %25 = load float, ptr %5, align 4, !tbaa !76
  %26 = load ptr, ptr %3, align 8, !tbaa !95
  %27 = load ptr, ptr %3, align 8, !tbaa !95
  %28 = getelementptr inbounds nuw %struct.Vec_Que_t_, ptr %27, i32 0, i32 2
  %29 = load ptr, ptr %28, align 8, !tbaa !140
  %30 = load i32, ptr %7, align 4, !tbaa !8
  %31 = sext i32 %30 to i64
  %32 = getelementptr inbounds i32, ptr %29, i64 %31
  %33 = load i32, ptr %32, align 4, !tbaa !8
  %34 = call float @Vec_QuePrio(ptr noundef %26, i32 noundef %33)
  %35 = fcmp ogt float %25, %34
  br label %36

36:                                               ; preds = %24, %21
  %37 = phi i1 [ false, %21 ], [ %35, %24 ]
  br i1 %37, label %38, label %68

38:                                               ; preds = %36
  %39 = load ptr, ptr %3, align 8, !tbaa !95
  %40 = getelementptr inbounds nuw %struct.Vec_Que_t_, ptr %39, i32 0, i32 2
  %41 = load ptr, ptr %40, align 8, !tbaa !140
  %42 = load i32, ptr %7, align 4, !tbaa !8
  %43 = sext i32 %42 to i64
  %44 = getelementptr inbounds i32, ptr %41, i64 %43
  %45 = load i32, ptr %44, align 4, !tbaa !8
  %46 = load ptr, ptr %3, align 8, !tbaa !95
  %47 = getelementptr inbounds nuw %struct.Vec_Que_t_, ptr %46, i32 0, i32 2
  %48 = load ptr, ptr %47, align 8, !tbaa !140
  %49 = load i32, ptr %6, align 4, !tbaa !8
  %50 = sext i32 %49 to i64
  %51 = getelementptr inbounds i32, ptr %48, i64 %50
  store i32 %45, ptr %51, align 4, !tbaa !8
  %52 = load i32, ptr %6, align 4, !tbaa !8
  %53 = load ptr, ptr %3, align 8, !tbaa !95
  %54 = getelementptr inbounds nuw %struct.Vec_Que_t_, ptr %53, i32 0, i32 3
  %55 = load ptr, ptr %54, align 8, !tbaa !141
  %56 = load ptr, ptr %3, align 8, !tbaa !95
  %57 = getelementptr inbounds nuw %struct.Vec_Que_t_, ptr %56, i32 0, i32 2
  %58 = load ptr, ptr %57, align 8, !tbaa !140
  %59 = load i32, ptr %6, align 4, !tbaa !8
  %60 = sext i32 %59 to i64
  %61 = getelementptr inbounds i32, ptr %58, i64 %60
  %62 = load i32, ptr %61, align 4, !tbaa !8
  %63 = sext i32 %62 to i64
  %64 = getelementptr inbounds i32, ptr %55, i64 %63
  store i32 %52, ptr %64, align 4, !tbaa !8
  %65 = load i32, ptr %7, align 4, !tbaa !8
  store i32 %65, ptr %6, align 4, !tbaa !8
  %66 = load i32, ptr %6, align 4, !tbaa !8
  %67 = ashr i32 %66, 1
  store i32 %67, ptr %7, align 4, !tbaa !8
  store i32 1, ptr %8, align 4, !tbaa !8
  br label %21, !llvm.loop !178

68:                                               ; preds = %36
  %69 = load i32, ptr %4, align 4, !tbaa !8
  %70 = load ptr, ptr %3, align 8, !tbaa !95
  %71 = getelementptr inbounds nuw %struct.Vec_Que_t_, ptr %70, i32 0, i32 2
  %72 = load ptr, ptr %71, align 8, !tbaa !140
  %73 = load i32, ptr %6, align 4, !tbaa !8
  %74 = sext i32 %73 to i64
  %75 = getelementptr inbounds i32, ptr %72, i64 %74
  store i32 %69, ptr %75, align 4, !tbaa !8
  %76 = load i32, ptr %6, align 4, !tbaa !8
  %77 = load ptr, ptr %3, align 8, !tbaa !95
  %78 = getelementptr inbounds nuw %struct.Vec_Que_t_, ptr %77, i32 0, i32 3
  %79 = load ptr, ptr %78, align 8, !tbaa !141
  %80 = load i32, ptr %4, align 4, !tbaa !8
  %81 = sext i32 %80 to i64
  %82 = getelementptr inbounds i32, ptr %79, i64 %81
  store i32 %76, ptr %82, align 4, !tbaa !8
  %83 = load i32, ptr %8, align 4, !tbaa !8
  call void @llvm.lifetime.end.p0(i64 4, ptr %8) #13
  call void @llvm.lifetime.end.p0(i64 4, ptr %7) #13
  call void @llvm.lifetime.end.p0(i64 4, ptr %6) #13
  call void @llvm.lifetime.end.p0(i64 4, ptr %5) #13
  ret i32 %83
}

; Function Attrs: inlinehint nounwind uwtable
define internal void @Vec_QueGrow(ptr noundef %0, i32 noundef %1) #2 {
  %3 = alloca ptr, align 8
  %4 = alloca i32, align 4
  store ptr %0, ptr %3, align 8, !tbaa !95
  store i32 %1, ptr %4, align 4, !tbaa !8
  %5 = load ptr, ptr %3, align 8, !tbaa !95
  %6 = getelementptr inbounds nuw %struct.Vec_Que_t_, ptr %5, i32 0, i32 0
  %7 = load i32, ptr %6, align 8, !tbaa !139
  %8 = load i32, ptr %4, align 4, !tbaa !8
  %9 = icmp sge i32 %7, %8
  br i1 %9, label %10, label %11

10:                                               ; preds = %2
  br label %87

11:                                               ; preds = %2
  %12 = load ptr, ptr %3, align 8, !tbaa !95
  %13 = getelementptr inbounds nuw %struct.Vec_Que_t_, ptr %12, i32 0, i32 2
  %14 = load ptr, ptr %13, align 8, !tbaa !140
  %15 = icmp ne ptr %14, null
  br i1 %15, label %16, label %24

16:                                               ; preds = %11
  %17 = load ptr, ptr %3, align 8, !tbaa !95
  %18 = getelementptr inbounds nuw %struct.Vec_Que_t_, ptr %17, i32 0, i32 2
  %19 = load ptr, ptr %18, align 8, !tbaa !140
  %20 = load i32, ptr %4, align 4, !tbaa !8
  %21 = sext i32 %20 to i64
  %22 = mul i64 4, %21
  %23 = call ptr @realloc(ptr noundef %19, i64 noundef %22) #15
  br label %29

24:                                               ; preds = %11
  %25 = load i32, ptr %4, align 4, !tbaa !8
  %26 = sext i32 %25 to i64
  %27 = mul i64 4, %26
  %28 = call noalias ptr @malloc(i64 noundef %27) #14
  br label %29

29:                                               ; preds = %24, %16
  %30 = phi ptr [ %23, %16 ], [ %28, %24 ]
  %31 = load ptr, ptr %3, align 8, !tbaa !95
  %32 = getelementptr inbounds nuw %struct.Vec_Que_t_, ptr %31, i32 0, i32 2
  store ptr %30, ptr %32, align 8, !tbaa !140
  %33 = load ptr, ptr %3, align 8, !tbaa !95
  %34 = getelementptr inbounds nuw %struct.Vec_Que_t_, ptr %33, i32 0, i32 3
  %35 = load ptr, ptr %34, align 8, !tbaa !141
  %36 = icmp ne ptr %35, null
  br i1 %36, label %37, label %45

37:                                               ; preds = %29
  %38 = load ptr, ptr %3, align 8, !tbaa !95
  %39 = getelementptr inbounds nuw %struct.Vec_Que_t_, ptr %38, i32 0, i32 3
  %40 = load ptr, ptr %39, align 8, !tbaa !141
  %41 = load i32, ptr %4, align 4, !tbaa !8
  %42 = sext i32 %41 to i64
  %43 = mul i64 4, %42
  %44 = call ptr @realloc(ptr noundef %40, i64 noundef %43) #15
  br label %50

45:                                               ; preds = %29
  %46 = load i32, ptr %4, align 4, !tbaa !8
  %47 = sext i32 %46 to i64
  %48 = mul i64 4, %47
  %49 = call noalias ptr @malloc(i64 noundef %48) #14
  br label %50

50:                                               ; preds = %45, %37
  %51 = phi ptr [ %44, %37 ], [ %49, %45 ]
  %52 = load ptr, ptr %3, align 8, !tbaa !95
  %53 = getelementptr inbounds nuw %struct.Vec_Que_t_, ptr %52, i32 0, i32 3
  store ptr %51, ptr %53, align 8, !tbaa !141
  %54 = load ptr, ptr %3, align 8, !tbaa !95
  %55 = getelementptr inbounds nuw %struct.Vec_Que_t_, ptr %54, i32 0, i32 2
  %56 = load ptr, ptr %55, align 8, !tbaa !140
  %57 = load ptr, ptr %3, align 8, !tbaa !95
  %58 = getelementptr inbounds nuw %struct.Vec_Que_t_, ptr %57, i32 0, i32 0
  %59 = load i32, ptr %58, align 8, !tbaa !139
  %60 = sext i32 %59 to i64
  %61 = getelementptr inbounds i32, ptr %56, i64 %60
  %62 = load i32, ptr %4, align 4, !tbaa !8
  %63 = load ptr, ptr %3, align 8, !tbaa !95
  %64 = getelementptr inbounds nuw %struct.Vec_Que_t_, ptr %63, i32 0, i32 0
  %65 = load i32, ptr %64, align 8, !tbaa !139
  %66 = sub nsw i32 %62, %65
  %67 = sext i32 %66 to i64
  %68 = mul i64 %67, 4
  call void @llvm.memset.p0.i64(ptr align 4 %61, i8 -1, i64 %68, i1 false)
  %69 = load ptr, ptr %3, align 8, !tbaa !95
  %70 = getelementptr inbounds nuw %struct.Vec_Que_t_, ptr %69, i32 0, i32 3
  %71 = load ptr, ptr %70, align 8, !tbaa !141
  %72 = load ptr, ptr %3, align 8, !tbaa !95
  %73 = getelementptr inbounds nuw %struct.Vec_Que_t_, ptr %72, i32 0, i32 0
  %74 = load i32, ptr %73, align 8, !tbaa !139
  %75 = sext i32 %74 to i64
  %76 = getelementptr inbounds i32, ptr %71, i64 %75
  %77 = load i32, ptr %4, align 4, !tbaa !8
  %78 = load ptr, ptr %3, align 8, !tbaa !95
  %79 = getelementptr inbounds nuw %struct.Vec_Que_t_, ptr %78, i32 0, i32 0
  %80 = load i32, ptr %79, align 8, !tbaa !139
  %81 = sub nsw i32 %77, %80
  %82 = sext i32 %81 to i64
  %83 = mul i64 %82, 4
  call void @llvm.memset.p0.i64(ptr align 4 %76, i8 -1, i64 %83, i1 false)
  %84 = load i32, ptr %4, align 4, !tbaa !8
  %85 = load ptr, ptr %3, align 8, !tbaa !95
  %86 = getelementptr inbounds nuw %struct.Vec_Que_t_, ptr %85, i32 0, i32 0
  store i32 %84, ptr %86, align 8, !tbaa !139
  br label %87

87:                                               ; preds = %50, %10
  ret void
}

; Function Attrs: inlinehint nounwind uwtable
define internal i32 @Abc_MaxInt(i32 noundef %0, i32 noundef %1) #2 {
  %3 = alloca i32, align 4
  %4 = alloca i32, align 4
  store i32 %0, ptr %3, align 4, !tbaa !8
  store i32 %1, ptr %4, align 4, !tbaa !8
  %5 = load i32, ptr %3, align 4, !tbaa !8
  %6 = load i32, ptr %4, align 4, !tbaa !8
  %7 = icmp sgt i32 %5, %6
  br i1 %7, label %8, label %10

8:                                                ; preds = %2
  %9 = load i32, ptr %3, align 4, !tbaa !8
  br label %12

10:                                               ; preds = %2
  %11 = load i32, ptr %4, align 4, !tbaa !8
  br label %12

12:                                               ; preds = %10, %8
  %13 = phi i32 [ %9, %8 ], [ %11, %10 ]
  ret i32 %13
}

; Function Attrs: inlinehint nounwind uwtable
define internal void @Vec_QuePush(ptr noundef %0, i32 noundef %1) #2 {
  %3 = alloca ptr, align 8
  %4 = alloca i32, align 4
  store ptr %0, ptr %3, align 8, !tbaa !95
  store i32 %1, ptr %4, align 4, !tbaa !8
  %5 = load ptr, ptr %3, align 8, !tbaa !95
  %6 = getelementptr inbounds nuw %struct.Vec_Que_t_, ptr %5, i32 0, i32 1
  %7 = load i32, ptr %6, align 4, !tbaa !136
  %8 = load ptr, ptr %3, align 8, !tbaa !95
  %9 = getelementptr inbounds nuw %struct.Vec_Que_t_, ptr %8, i32 0, i32 0
  %10 = load i32, ptr %9, align 8, !tbaa !139
  %11 = icmp sge i32 %7, %10
  br i1 %11, label %12, label %23

12:                                               ; preds = %2
  %13 = load ptr, ptr %3, align 8, !tbaa !95
  %14 = load ptr, ptr %3, align 8, !tbaa !95
  %15 = getelementptr inbounds nuw %struct.Vec_Que_t_, ptr %14, i32 0, i32 1
  %16 = load i32, ptr %15, align 4, !tbaa !136
  %17 = add nsw i32 %16, 1
  %18 = load ptr, ptr %3, align 8, !tbaa !95
  %19 = getelementptr inbounds nuw %struct.Vec_Que_t_, ptr %18, i32 0, i32 0
  %20 = load i32, ptr %19, align 8, !tbaa !139
  %21 = mul nsw i32 2, %20
  %22 = call i32 @Abc_MaxInt(i32 noundef %17, i32 noundef %21)
  call void @Vec_QueGrow(ptr noundef %13, i32 noundef %22)
  br label %23

23:                                               ; preds = %12, %2
  %24 = load i32, ptr %4, align 4, !tbaa !8
  %25 = load ptr, ptr %3, align 8, !tbaa !95
  %26 = getelementptr inbounds nuw %struct.Vec_Que_t_, ptr %25, i32 0, i32 0
  %27 = load i32, ptr %26, align 8, !tbaa !139
  %28 = icmp sge i32 %24, %27
  br i1 %28, label %29, label %38

29:                                               ; preds = %23
  %30 = load ptr, ptr %3, align 8, !tbaa !95
  %31 = load i32, ptr %4, align 4, !tbaa !8
  %32 = add nsw i32 %31, 1
  %33 = load ptr, ptr %3, align 8, !tbaa !95
  %34 = getelementptr inbounds nuw %struct.Vec_Que_t_, ptr %33, i32 0, i32 0
  %35 = load i32, ptr %34, align 8, !tbaa !139
  %36 = mul nsw i32 2, %35
  %37 = call i32 @Abc_MaxInt(i32 noundef %32, i32 noundef %36)
  call void @Vec_QueGrow(ptr noundef %30, i32 noundef %37)
  br label %38

38:                                               ; preds = %29, %23
  %39 = load ptr, ptr %3, align 8, !tbaa !95
  %40 = getelementptr inbounds nuw %struct.Vec_Que_t_, ptr %39, i32 0, i32 1
  %41 = load i32, ptr %40, align 4, !tbaa !136
  %42 = load ptr, ptr %3, align 8, !tbaa !95
  %43 = getelementptr inbounds nuw %struct.Vec_Que_t_, ptr %42, i32 0, i32 3
  %44 = load ptr, ptr %43, align 8, !tbaa !141
  %45 = load i32, ptr %4, align 4, !tbaa !8
  %46 = sext i32 %45 to i64
  %47 = getelementptr inbounds i32, ptr %44, i64 %46
  store i32 %41, ptr %47, align 4, !tbaa !8
  %48 = load i32, ptr %4, align 4, !tbaa !8
  %49 = load ptr, ptr %3, align 8, !tbaa !95
  %50 = getelementptr inbounds nuw %struct.Vec_Que_t_, ptr %49, i32 0, i32 2
  %51 = load ptr, ptr %50, align 8, !tbaa !140
  %52 = load ptr, ptr %3, align 8, !tbaa !95
  %53 = getelementptr inbounds nuw %struct.Vec_Que_t_, ptr %52, i32 0, i32 1
  %54 = load i32, ptr %53, align 4, !tbaa !136
  %55 = add nsw i32 %54, 1
  store i32 %55, ptr %53, align 4, !tbaa !136
  %56 = sext i32 %54 to i64
  %57 = getelementptr inbounds i32, ptr %51, i64 %56
  store i32 %48, ptr %57, align 4, !tbaa !8
  %58 = load ptr, ptr %3, align 8, !tbaa !95
  %59 = load i32, ptr %4, align 4, !tbaa !8
  %60 = call i32 @Vec_QueMoveUp(ptr noundef %58, i32 noundef %59)
  ret void
}