; Function Attrs: inlinehint nounwind uwtable
define internal fastcc void @Vec_QuePush(ptr noundef captures(none) %0, i32 noundef %1) unnamed_addr #5 {
  %3 = getelementptr inbounds nuw i8, ptr %0, i64 4
  %4 = load i32, ptr %3, align 4, !tbaa !114
  %5 = load i32, ptr %0, align 8, !tbaa !115
  %.not = icmp slt i32 %4, %5
  br i1 %.not, label %Vec_QueGrow.exit, label %6

6:                                                ; preds = %2
  %7 = add nsw i32 %4, 1
  %8 = shl nsw i32 %5, 1
  %9 = tail call noundef i32 @llvm.smax.i32(i32 %7, i32 %8)
  %10 = getelementptr inbounds nuw i8, ptr %0, i64 8
  %11 = load ptr, ptr %10, align 8, !tbaa !88
  %.not23.i = icmp eq ptr %11, null
  %12 = sext i32 %9 to i64
  %13 = shl nsw i64 %12, 2
  br i1 %.not23.i, label %16, label %14

14:                                               ; preds = %6
  %15 = tail call ptr @realloc(ptr noundef nonnull %11, i64 noundef %13) #25
  br label %18

16:                                               ; preds = %6
  %17 = tail call noalias ptr @malloc(i64 noundef %13) #26
  br label %18

18:                                               ; preds = %16, %14
  %19 = phi ptr [ %15, %14 ], [ %17, %16 ]
  store ptr %19, ptr %10, align 8, !tbaa !88
  %20 = getelementptr inbounds nuw i8, ptr %0, i64 16
  %21 = load ptr, ptr %20, align 8, !tbaa !85
  %.not24.i = icmp eq ptr %21, null
  br i1 %.not24.i, label %24, label %22

22:                                               ; preds = %18
  %23 = tail call ptr @realloc(ptr noundef nonnull %21, i64 noundef %13) #25
  %.pre.i = load ptr, ptr %10, align 8, !tbaa !88
  br label %26

24:                                               ; preds = %18
  %25 = tail call noalias ptr @malloc(i64 noundef %13) #26
  br label %26

26:                                               ; preds = %24, %22
  %27 = phi ptr [ %.pre.i, %22 ], [ %19, %24 ]
  %28 = phi ptr [ %23, %22 ], [ %25, %24 ]
  store ptr %28, ptr %20, align 8, !tbaa !85
  %29 = load i32, ptr %0, align 8, !tbaa !115
  %30 = sext i32 %29 to i64
  %31 = getelementptr inbounds i32, ptr %27, i64 %30
  %32 = sub nsw i32 %9, %29
  %33 = sext i32 %32 to i64
  %34 = shl nsw i64 %33, 2
  tail call void @llvm.memset.p0.i64(ptr align 4 %31, i8 -1, i64 %34, i1 false)
  %35 = load ptr, ptr %20, align 8, !tbaa !85
  %36 = load i32, ptr %0, align 8, !tbaa !115
  %37 = sext i32 %36 to i64
  %38 = getelementptr inbounds i32, ptr %35, i64 %37
  %39 = sub nsw i32 %9, %36
  %40 = sext i32 %39 to i64
  %41 = shl nsw i64 %40, 2
  tail call void @llvm.memset.p0.i64(ptr align 4 %38, i8 -1, i64 %41, i1 false)
  store i32 %9, ptr %0, align 8, !tbaa !115
  br label %Vec_QueGrow.exit

Vec_QueGrow.exit:                                 ; preds = %26, %2
  %42 = phi i32 [ %9, %26 ], [ %5, %2 ]
  %.not20 = icmp slt i32 %1, %42
  br i1 %.not20, label %Vec_QueGrow.exit25, label %43

43:                                               ; preds = %Vec_QueGrow.exit
  %44 = add nsw i32 %1, 1
  %45 = shl nsw i32 %42, 1
  %46 = tail call noundef i32 @llvm.smax.i32(i32 %44, i32 %45)
  %47 = getelementptr inbounds nuw i8, ptr %0, i64 8
  %48 = load ptr, ptr %47, align 8, !tbaa !88
  %.not23.i22 = icmp eq ptr %48, null
  %49 = sext i32 %46 to i64
  %50 = shl nsw i64 %49, 2
  br i1 %.not23.i22, label %53, label %51

51:                                               ; preds = %43
  %52 = tail call ptr @realloc(ptr noundef nonnull %48, i64 noundef %50) #25
  br label %55

53:                                               ; preds = %43
  %54 = tail call noalias ptr @malloc(i64 noundef %50) #26
  br label %55

55:                                               ; preds = %53, %51
  %56 = phi ptr [ %52, %51 ], [ %54, %53 ]
  store ptr %56, ptr %47, align 8, !tbaa !88
  %57 = getelementptr inbounds nuw i8, ptr %0, i64 16
  %58 = load ptr, ptr %57, align 8, !tbaa !85
  %.not24.i23 = icmp eq ptr %58, null
  br i1 %.not24.i23, label %61, label %59

59:                                               ; preds = %55
  %60 = tail call ptr @realloc(ptr noundef nonnull %58, i64 noundef %50) #25
  %.pre.i24 = load ptr, ptr %47, align 8, !tbaa !88
  br label %63

61:                                               ; preds = %55
  %62 = tail call noalias ptr @malloc(i64 noundef %50) #26
  br label %63

63:                                               ; preds = %61, %59
  %64 = phi ptr [ %.pre.i24, %59 ], [ %56, %61 ]
  %65 = phi ptr [ %60, %59 ], [ %62, %61 ]
  store ptr %65, ptr %57, align 8, !tbaa !85
  %66 = load i32, ptr %0, align 8, !tbaa !115
  %67 = sext i32 %66 to i64
  %68 = getelementptr inbounds i32, ptr %64, i64 %67
  %69 = sub nsw i32 %46, %66
  %70 = sext i32 %69 to i64
  %71 = shl nsw i64 %70, 2
  tail call void @llvm.memset.p0.i64(ptr align 4 %68, i8 -1, i64 %71, i1 false)
  %72 = load ptr, ptr %57, align 8, !tbaa !85
  %73 = load i32, ptr %0, align 8, !tbaa !115
  %74 = sext i32 %73 to i64
  %75 = getelementptr inbounds i32, ptr %72, i64 %74
  %76 = sub nsw i32 %46, %73
  %77 = sext i32 %76 to i64
  %78 = shl nsw i64 %77, 2
  tail call void @llvm.memset.p0.i64(ptr align 4 %75, i8 -1, i64 %78, i1 false)
  store i32 %46, ptr %0, align 8, !tbaa !115
  br label %Vec_QueGrow.exit25

Vec_QueGrow.exit25:                               ; preds = %63, %Vec_QueGrow.exit
  %79 = load i32, ptr %3, align 4, !tbaa !114
  %80 = getelementptr inbounds nuw i8, ptr %0, i64 16
  %81 = load ptr, ptr %80, align 8, !tbaa !85
  %82 = sext i32 %1 to i64
  %83 = getelementptr inbounds i32, ptr %81, i64 %82
  store i32 %79, ptr %83, align 4, !tbaa !11
  %84 = getelementptr inbounds nuw i8, ptr %0, i64 8
  %85 = load ptr, ptr %84, align 8, !tbaa !88
  %86 = add nsw i32 %79, 1
  store i32 %86, ptr %3, align 4, !tbaa !114
  %87 = sext i32 %79 to i64
  %88 = getelementptr inbounds i32, ptr %85, i64 %87
  store i32 %1, ptr %88, align 4, !tbaa !11
  %89 = getelementptr i8, ptr %0, i64 24
  %.val.i = load ptr, ptr %89, align 8, !tbaa !117
  %.val.val.i = load ptr, ptr %.val.i, align 8, !tbaa !131
  %.not.i.i = icmp eq ptr %.val.val.i, null
  br i1 %.not.i.i, label %Vec_QuePrio.exit.i, label %Vec_QuePrio.exit.thread.i

Vec_QuePrio.exit.i:                               ; preds = %Vec_QueGrow.exit25
  %90 = sitofp i32 %1 to float
  %91 = load i32, ptr %83, align 4, !tbaa !11
  %92 = icmp sgt i32 %91, 1
  br i1 %92, label %.lr.ph.split.us.i, label %Vec_QueMoveUp.exit

Vec_QuePrio.exit.thread.i:                        ; preds = %Vec_QueGrow.exit25
  %93 = getelementptr inbounds float, ptr %.val.val.i, i64 %82
  %94 = load float, ptr %93, align 4, !tbaa !65
  %95 = load i32, ptr %83, align 4, !tbaa !11
  %96 = icmp sgt i32 %95, 1
  br i1 %96, label %.lr.ph.split.i, label %Vec_QueMoveUp.exit

.lr.ph.split.us.i:                                ; preds = %Vec_QuePrio.exit.i
  %.02631.i = lshr i32 %91, 1
  %97 = zext nneg i32 %.02631.i to i64
  %98 = getelementptr inbounds nuw i32, ptr %85, i64 %97
  %99 = load i32, ptr %98, align 4, !tbaa !11
  %100 = sitofp i32 %99 to float
  %101 = fcmp ogt float %90, %100
  br i1 %101, label %.lr.ph48.i, label %Vec_QueMoveUp.exit

Vec_QuePrio.exit30.us.i:                          ; preds = %.lr.ph48.i
  %.026.us.i = lshr i32 %.02634.us46.i, 1
  %102 = zext nneg i32 %.026.us.i to i64
  %103 = getelementptr inbounds nuw i32, ptr %85, i64 %102
  %104 = load i32, ptr %103, align 4, !tbaa !11
  %105 = sitofp i32 %104 to float
  %106 = fcmp ogt float %90, %105
  br i1 %106, label %.lr.ph48.i, label %Vec_QueMoveUp.exit, !llvm.loop !132

.lr.ph48.i:                                       ; preds = %.lr.ph.split.us.i, %Vec_QuePrio.exit30.us.i
  %107 = phi i32 [ %104, %Vec_QuePrio.exit30.us.i ], [ %99, %.lr.ph.split.us.i ]
  %.02732.us47.i = phi i32 [ %.02634.us46.i, %Vec_QuePrio.exit30.us.i ], [ %91, %.lr.ph.split.us.i ]
  %.02634.us46.i = phi i32 [ %.026.us.i, %Vec_QuePrio.exit30.us.i ], [ %.02631.i, %.lr.ph.split.us.i ]
  %108 = zext nneg i32 %.02732.us47.i to i64
  %109 = getelementptr inbounds nuw i32, ptr %85, i64 %108
  store i32 %107, ptr %109, align 4, !tbaa !11
  %110 = sext i32 %107 to i64
  %111 = getelementptr inbounds i32, ptr %81, i64 %110
  store i32 %.02732.us47.i, ptr %111, align 4, !tbaa !11
  %112 = icmp samesign ugt i32 %.02634.us46.i, 1
  br i1 %112, label %Vec_QuePrio.exit30.us.i, label %Vec_QueMoveUp.exit, !llvm.loop !132

.lr.ph.split.i:                                   ; preds = %Vec_QuePrio.exit.thread.i
  %.0263154.i = lshr i32 %95, 1
  %113 = zext nneg i32 %.0263154.i to i64
  %114 = getelementptr inbounds nuw i32, ptr %85, i64 %113
  %115 = load i32, ptr %114, align 4, !tbaa !11
  %116 = sext i32 %115 to i64
  %117 = getelementptr inbounds float, ptr %.val.val.i, i64 %116
  %118 = load float, ptr %117, align 4, !tbaa !65
  %119 = fcmp ogt float %94, %118
  br i1 %119, label %.lr.ph43.i, label %Vec_QueMoveUp.exit

Vec_QuePrio.exit30.i:                             ; preds = %.lr.ph43.i
  %.026.i = lshr i32 %.0263441.i, 1
  %120 = zext nneg i32 %.026.i to i64
  %121 = getelementptr inbounds nuw i32, ptr %85, i64 %120
  %122 = load i32, ptr %121, align 4, !tbaa !11
  %123 = sext i32 %122 to i64
  %124 = getelementptr inbounds float, ptr %.val.val.i, i64 %123
  %125 = load float, ptr %124, align 4, !tbaa !65
  %126 = fcmp ogt float %94, %125
  br i1 %126, label %.lr.ph43.i, label %Vec_QueMoveUp.exit, !llvm.loop !132

.lr.ph43.i:                                       ; preds = %.lr.ph.split.i, %Vec_QuePrio.exit30.i
  %127 = phi i32 [ %122, %Vec_QuePrio.exit30.i ], [ %115, %.lr.ph.split.i ]
  %.0273242.i = phi i32 [ %.0263441.i, %Vec_QuePrio.exit30.i ], [ %95, %.lr.ph.split.i ]
  %.0263441.i = phi i32 [ %.026.i, %Vec_QuePrio.exit30.i ], [ %.0263154.i, %.lr.ph.split.i ]
  %128 = zext nneg i32 %.0273242.i to i64
  %129 = getelementptr inbounds nuw i32, ptr %85, i64 %128
  store i32 %127, ptr %129, align 4, !tbaa !11
  %130 = sext i32 %127 to i64
  %131 = getelementptr inbounds i32, ptr %81, i64 %130
  store i32 %.0273242.i, ptr %131, align 4, !tbaa !11
  %132 = icmp samesign ugt i32 %.0263441.i, 1
  br i1 %132, label %Vec_QuePrio.exit30.i, label %Vec_QueMoveUp.exit, !llvm.loop !132

Vec_QueMoveUp.exit:                               ; preds = %Vec_QuePrio.exit30.i, %.lr.ph43.i, %Vec_QuePrio.exit30.us.i, %.lr.ph48.i, %Vec_QuePrio.exit.i, %Vec_QuePrio.exit.thread.i, %.lr.ph.split.us.i, %.lr.ph.split.i
  %.027.lcssa.i = phi i32 [ %91, %.lr.ph.split.us.i ], [ %95, %.lr.ph.split.i ], [ %95, %Vec_QuePrio.exit.thread.i ], [ %91, %Vec_QuePrio.exit.i ], [ %.02634.us46.i, %.lr.ph48.i ], [ %.02634.us46.i, %Vec_QuePrio.exit30.us.i ], [ %.0263441.i, %.lr.ph43.i ], [ %.0263441.i, %Vec_QuePrio.exit30.i ]
  %133 = sext i32 %.027.lcssa.i to i64
  %134 = getelementptr inbounds i32, ptr %85, i64 %133
  store i32 %1, ptr %134, align 4, !tbaa !11
  store i32 %.027.lcssa.i, ptr %83, align 4, !tbaa !11
  ret void
}